target datalayout = "e-m:e-p270:32:32-p271:32:32-p272:64:64-i64:64-i128:128-f80:128-n8:16:32:64-S128"
target triple = "x86_64-pc-linux-gnu"

%"struct.Assimp::MDC::CompressedVertex" = type { i8, i8, i8, i8 }
%"struct.Assimp::MDC::Frame" = type { %class.aiVector3t, %class.aiVector3t, %class.aiVector3t, float, [16 x i8] }
%class.aiVector3t = type { float, float, float }
%"struct.Assimp::MDC::BaseVertex" = type { i16, i16, i16, i16 }

; Function Attrs: mustprogress nounwind uwtable
define hidden void @_ZN6Assimp3MDC11BuildVertexERKNS0_5FrameERKNS0_10BaseVertexERKNS0_16CompressedVertexER10aiVector3tIfESC_(ptr noundef nonnull align 4 dereferenceable(56) %0, ptr noundef nonnull align 1 dereferenceable(8) %1, ptr noundef nonnull align 1 dereferenceable(4) %2, ptr noundef nonnull align 4 dereferenceable(12) %3, ptr noundef nonnull align 4 dereferenceable(12) %4) #0 {
  %6 = alloca ptr, align 8
  %7 = alloca ptr, align 8
  %8 = alloca ptr, align 8
  %9 = alloca ptr, align 8
  %10 = alloca ptr, align 8
  %11 = alloca float, align 4
  %12 = alloca float, align 4
  %13 = alloca float, align 4
  store ptr %0, ptr %6, align 8
  store ptr %1, ptr %7, align 8
  store ptr %2, ptr %8, align 8
  store ptr %3, ptr %9, align 8
  store ptr %4, ptr %10, align 8
  call void @llvm.lifetime.start.p0(i64 4, ptr %11) #17
  %14 = load ptr, ptr %8, align 8
  %15 = getelementptr inbounds nuw %"struct.Assimp::MDC::CompressedVertex", ptr %14, i32 0, i32 0
  %16 = load i8, ptr %15, align 1
  %17 = zext i8 %16 to i32
  %18 = sitofp i32 %17 to float
  %19 = fsub float %18, 1.270000e+02
  %20 = fmul float %19, 4.000000e+00
  store float %20, ptr %11, align 4
  call void @llvm.lifetime.start.p0(i64 4, ptr %12) #17
  %21 = load ptr, ptr %8, align 8
  %22 = getelementptr inbounds nuw %"struct.Assimp::MDC::CompressedVertex", ptr %21, i32 0, i32 1
  %23 = load i8, ptr %22, align 1
  %24 = zext i8 %23 to i32
  %25 = sitofp i32 %24 to float
  %26 = fsub float %25, 1.270000e+02
  %27 = fmul float %26, 4.000000e+00
  store float %27, ptr %12, align 4
  call void @llvm.lifetime.start.p0(i64 4, ptr %13) #17
  %28 = load ptr, ptr %8, align 8
  %29 = getelementptr inbounds nuw %"struct.Assimp::MDC::CompressedVertex", ptr %28, i32 0, i32 2
  %30 = load i8, ptr %29, align 1
  %31 = zext i8 %30 to i32
  %32 = sitofp i32 %31 to float
  %33 = fsub float %32, 1.270000e+02
  %34 = fmul float %33, 4.000000e+00
  store float %34, ptr %13, align 4
  %35 = load ptr, ptr %6, align 8
  %36 = getelementptr inbounds nuw %"struct.Assimp::MDC::Frame", ptr %35, i32 0, i32 2
  %37 = getelementptr inbounds nuw %class.aiVector3t, ptr %36, i32 0, i32 0
  %38 = load float, ptr %37, align 4
  %39 = load ptr, ptr %7, align 8
  %40 = getelementptr inbounds nuw %"struct.Assimp::MDC::BaseVertex", ptr %39, i32 0, i32 0
  %41 = load i16, ptr %40, align 1
  %42 = sext i16 %41 to i32
  %43 = sitofp i32 %42 to float
  %44 = load float, ptr %11, align 4
  %45 = fadd float %43, %44
  %46 = call float @llvm.fmuladd.f32(float 1.562500e-02, float %45, float %38)
  %47 = load ptr, ptr %9, align 8
  %48 = getelementptr inbounds nuw %class.aiVector3t, ptr %47, i32 0, i32 0
  store float %46, ptr %48, align 4
  %49 = load ptr, ptr %6, align 8
  %50 = getelementptr inbounds nuw %"struct.Assimp::MDC::Frame", ptr %49, i32 0, i32 2
  %51 = getelementptr inbounds nuw %class.aiVector3t, ptr %50, i32 0, i32 1
  %52 = load float, ptr %51, align 4
  %53 = load ptr, ptr %7, align 8
  %54 = getelementptr inbounds nuw %"struct.Assimp::MDC::BaseVertex", ptr %53, i32 0, i32 1
  %55 = load i16, ptr %54, align 1
  %56 = sext i16 %55 to i32
  %57 = sitofp i32 %56 to float
  %58 = load float, ptr %12, align 4
  %59 = fadd float %57, %58
  %60 = call float @llvm.fmuladd.f32(float 1.562500e-02, float %59, float %52)
  %61 = load ptr, ptr %9, align 8
  %62 = getelementptr inbounds nuw %class.aiVector3t, ptr %61, i32 0, i32 1
  store float %60, ptr %62, align 4
  %63 = load ptr, ptr %6, align 8
  %64 = getelementptr inbounds nuw %"struct.Assimp::MDC::Frame", ptr %63, i32 0, i32 2
  %65 = getelementptr inbounds nuw %class.aiVector3t, ptr %64, i32 0, i32 2
  %66 = load float, ptr %65, align 4
  %67 = load ptr, ptr %7, align 8
  %68 = getelementptr inbounds nuw %"struct.Assimp::MDC::BaseVertex", ptr %67, i32 0, i32 2
  %69 = load i16, ptr %68, align 1
  %70 = sext i16 %69 to i32
  %71 = sitofp i32 %70 to float
  %72 = load float, ptr %13, align 4
  %73 = fadd float %71, %72
  %74 = call float @llvm.fmuladd.f32(float 1.562500e-02, float %73, float %66)
  %75 = load ptr, ptr %9, align 8
  %76 = getelementptr inbounds nuw %class.aiVector3t, ptr %75, i32 0, i32 2
  store float %74, ptr %76, align 4
  %77 = load ptr, ptr %8, align 8
  %78 = getelementptr inbounds nuw %"struct.Assimp::MDC::CompressedVertex", ptr %77, i32 0, i32 3
  %79 = load i8, ptr %78, align 1
  %80 = zext i8 %79 to i64
  %81 = getelementptr inbounds nuw [256 x [3 x float]], ptr @_ZL10mdcNormals, i64 0, i64 %80
  %82 = getelementptr inbounds [3 x float], ptr %81, i64 0, i64 0
  %83 = load float, ptr %82, align 4
  %84 = load ptr, ptr %10, align 8
  %85 = getelementptr inbounds nuw %class.aiVector3t, ptr %84, i32 0, i32 0
  store float %83, ptr %85, align 4
  %86 = load ptr, ptr %8, align 8
  %87 = getelementptr inbounds nuw %"struct.Assimp::MDC::CompressedVertex", ptr %86, i32 0, i32 3
  %88 = load i8, ptr %87, align 1
  %89 = zext i8 %88 to i64
  %90 = getelementptr inbounds nuw [256 x [3 x float]], ptr @_ZL10mdcNormals, i64 0, i64 %89
  %91 = getelementptr inbounds [3 x float], ptr %90, i64 0, i64 1
  %92 = load float, ptr %91, align 4
  %93 = load ptr, ptr %10, align 8
  %94 = getelementptr inbounds nuw %class.aiVector3t, ptr %93, i32 0, i32 1
  store float %92, ptr %94, align 4
  %95 = load ptr, ptr %8, align 8
  %96 = getelementptr inbounds nuw %"struct.Assimp::MDC::CompressedVertex", ptr %95, i32 0, i32 3
  %97 = load i8, ptr %96, align 1
  %98 = zext i8 %97 to i64
  %99 = getelementptr inbounds nuw [256 x [3 x float]], ptr @_ZL10mdcNormals, i64 0, i64 %98
  %100 = getelementptr inbounds [3 x float], ptr %99, i64 0, i64 2
  %101 = load float, ptr %100, align 4
  %102 = load ptr, ptr %10, align 8
  %103 = getelementptr inbounds nuw %class.aiVector3t, ptr %102, i32 0, i32 2
  store float %101, ptr %103, align 4
  call void @llvm.lifetime.end.p0(i64 4, ptr %13) #17
  call void @llvm.lifetime.end.p0(i64 4, ptr %12) #17
  call void @llvm.lifetime.end.p0(i64 4, ptr %11) #17
  ret void
}