; Function Attrs: mustprogress nofree norecurse nosync nounwind willreturn memory(argmem: readwrite) uwtable
define hidden void @_ZN6Assimp3MDC11BuildVertexERKNS0_5FrameERKNS0_10BaseVertexERKNS0_16CompressedVertexER10aiVector3tIfESC_(ptr noundef nonnull readonly align 4 captures(none) dereferenceable(56) %0, ptr noundef nonnull readonly align 1 captures(none) dereferenceable(8) %1, ptr noundef nonnull readonly align 1 captures(none) dereferenceable(4) %2, ptr noundef nonnull writeonly align 4 captures(none) dereferenceable(12) initializes((0, 12)) %3, ptr noundef nonnull writeonly align 4 captures(none) dereferenceable(12) initializes((0, 12)) %4) local_unnamed_addr #0 {
  %6 = load i8, ptr %2, align 1
  %7 = uitofp i8 %6 to float
  %8 = fadd float %7, -1.270000e+02
  %9 = fmul float %8, 4.000000e+00
  %10 = getelementptr inbounds nuw i8, ptr %2, i64 1
  %11 = load i8, ptr %10, align 1
  %12 = uitofp i8 %11 to float
  %13 = fadd float %12, -1.270000e+02
  %14 = fmul float %13, 4.000000e+00
  %15 = getelementptr inbounds nuw i8, ptr %2, i64 2
  %16 = load i8, ptr %15, align 1
  %17 = uitofp i8 %16 to float
  %18 = fadd float %17, -1.270000e+02
  %19 = fmul float %18, 4.000000e+00
  %20 = getelementptr inbounds nuw i8, ptr %0, i64 24
  %21 = load float, ptr %20, align 4
  %22 = load i16, ptr %1, align 1
  %23 = sitofp i16 %22 to float
  %24 = fadd float %9, %23
  %25 = tail call float @llvm.fmuladd.f32(float %24, float 1.562500e-02, float %21)
  store float %25, ptr %3, align 4
  %26 = getelementptr inbounds nuw i8, ptr %0, i64 28
  %27 = load float, ptr %26, align 4
  %28 = getelementptr inbounds nuw i8, ptr %1, i64 2
  %29 = load i16, ptr %28, align 1
  %30 = sitofp i16 %29 to float
  %31 = fadd float %14, %30
  %32 = tail call float @llvm.fmuladd.f32(float %31, float 1.562500e-02, float %27)
  %33 = getelementptr inbounds nuw i8, ptr %3, i64 4
  store float %32, ptr %33, align 4
  %34 = getelementptr inbounds nuw i8, ptr %0, i64 32
  %35 = load float, ptr %34, align 4
  %36 = getelementptr inbounds nuw i8, ptr %1, i64 4
  %37 = load i16, ptr %36, align 1
  %38 = sitofp i16 %37 to float
  %39 = fadd float %19, %38
  %40 = tail call float @llvm.fmuladd.f32(float %39, float 1.562500e-02, float %35)
  %41 = getelementptr inbounds nuw i8, ptr %3, i64 8
  store float %40, ptr %41, align 4
  %42 = getelementptr inbounds nuw i8, ptr %2, i64 3
  %43 = load i8, ptr %42, align 1
  %44 = zext i8 %43 to i64
  %45 = getelementptr inbounds nuw [256 x [3 x float]], ptr @_ZL10mdcNormals, i64 0, i64 %44
  %46 = load float, ptr %45, align 4
  store float %46, ptr %4, align 4
  %47 = load i8, ptr %42, align 1
  %48 = zext i8 %47 to i64
  %49 = getelementptr inbounds nuw [256 x [3 x float]], ptr @_ZL10mdcNormals, i64 0, i64 %48, i64 1
  %50 = load float, ptr %49, align 4
  %51 = getelementptr inbounds nuw i8, ptr %4, i64 4
  store float %50, ptr %51, align 4
  %52 = load i8, ptr %42, align 1
  %53 = zext i8 %52 to i64
  %54 = getelementptr inbounds nuw [256 x [3 x float]], ptr @_ZL10mdcNormals, i64 0, i64 %53, i64 2
  %55 = load float, ptr %54, align 4
  %56 = getelementptr inbounds nuw i8, ptr %4, i64 8
  store float %55, ptr %56, align 4
  ret void
}